Certificate:
    Data:
        Version: 3 (0x2)
        Serial Number: 4097 (0x1001)
        Signature Algorithm: sha256WithRSAEncryption
        Issuer: C=AU, ST=Some-State, O=Internet Widgits Pty Ltd
        Validity
            Not Before: Feb 27 13:37:02 2022 GMT
            Not After : Feb 27 13:37:02 2023 GMT
        Subject: C=AU, ST=Some-State, O=Internet Widgits Pty Ltd, CN=example.com
        Subject Public Key Info:
            Public Key Algorithm: rsaEncryption
                RSA Public-Key: (2048 bit)
                Modulus:
                    00:d1:23:5c:dd:b9:d9:a4:3f:0d:f9:bc:96:88:13:
                    81:e7:54:9a:f4:94:a7:ef:29:4c:32:70:5c:44:8c:
                    da:18:99:1f:66:62:31:8e:11:ef:99:13:39:f1:93:
                    77:b4:19:d2:10:8b:b1:95:a3:99:32:e4:41:42:c9:
                    93:e3:31:46:a3:a0:3c:0b:74:96:32:d1:96:b4:88:
                    ea:36:39:7d:30:98:8a:62:5c:0a:0f:e1:00:a6:92:
                    ce:89:16:dd:73:9d:dd:62:81:fb:40:15:a4:f8:c3:
                    87:46:76:9f:d2:cb:c8:71:5d:ad:a0:39:ee:32:c2:
                    84:fe:95:d6:b5:34:e1:12:1e:95:a5:a0:46:b3:3e:
                    cf:1f:48:a2:2d:72:be:82:e8:92:83:02:eb:bf:41:
                    3f:b4:fb:75:86:af:19:56:47:21:10:ca:65:2a:51:
                    a1:96:96:17:60:9e:90:d4:3f:f9:e2:cf:de:23:45:
                    cd:49:b6:30:ea:95:e9:20:72:a2:35:a9:af:aa:98:
                    bf:e7:0a:0d:17:2d:1b:48:49:7e:11:0f:ba:8a:60:
                    46:c4:97:7d:5b:15:e1:78:a8:e3:85:c0:03:97:e7:
                    64:ef:8a:00:1f:e6:a4:68:61:b4:d0:c0:5e:3d:3e:
                    5b:ca:48:57:d1:72:5e:0f:ff:44:10:73:2f:3e:b0:
                    09:a7
                Exponent: 65537 (0x10001)
        X509v3 extensions:
            X509v3 Basic Constraints: 
                CA:FALSE
            Netscape Comment: 
                OpenSSL Generated Certificate
            X509v3 Subject Key Identifier: 
                47:8A:35:AA:BA:8D:3A:4B:92:57:27:B5:95:7B:29:B6:5F:E9:CD:42
            X509v3 Authority Key Identifier: 
                keyid:5F:05:27:F5:30:BC:26:B3:0A:A6:96:0F:59:A3:25:01:B7:85:B8:C5

    Signature Algorithm: sha256WithRSAEncryption
         46:6d:60:8f:6a:5c:cf:a3:14:aa:49:b4:17:2f:6c:44:06:f9:
         a5:51:30:ac:4e:29:5d:4a:ae:2f:5d:30:6d:4a:e1:73:c8:41:
         42:80:0c:2b:60:9e:ba:8d:74:0d:a4:64:81:b3:19:df:7a:9e:
         4d:bc:0a:18:96:41:31:67:d4:76:55:87:e2:6f:9c:ea:59:ff:
         47:d5:22:58:93:74:16:2c:1e:ba:80:8e:a7:ef:1a:64:80:60:
         0a:61:76:fe:e3:f5:4d:b7:9b:96:82:36:c0:20:12:25:85:b8:
         ba:bb:65:22:65:de:b3:ec:16:1a:2a:ed:d9:12:e7:5d:c5:33:
         22:8a:c3:71:f1:fa:91:09:83:4b:63:30:c5:e9:35:af:ef:0d:
         e1:f9:2c:1b:e8:05:f7:3b:a5:45:f5:54:e1:af:65:96:88:eb:
         3d:b4:53:a3:a2:b9:ef:9c:5c:8d:c6:8b:5b:e5:57:7c:04:72:
         1f:7c:1c:01:97:12:32:76:0d:bf:cc:4a:0c:83:01:af:bc:3c:
         9f:ca:9a:9d:49:18:27:df:f3:54:2e:03:0d:35:9f:c3:61:d6:
         a1:da:a9:8b:f7:ce:c2:6c:8c:0e:65:36:f8:f5:34:31:9e:82:
         0e:60:67:3f:aa:e5:9a:dc:86:20:4e:48:89:e6:a4:10:45:c9:
         75:e3:1f:6b:db:9b:89:26:03:e1:6f:00:01:59:e2:3e:5a:be:
         bf:d3:1d:e6:a1:89:82:d8:b7:5e:8f:a4:42:2d:c2:67:27:4c:
         70:76:a0:e2:87:8a:68:06:33:21:9a:bb:ed:11:45:bf:44:da:
         73:e2:c7:2d:c4:20:9d:65:a9:a0:34:4d:6a:27:59:20:5c:50:
         3e:ee:bd:9f:80:c3:b6:5f:4f:e7:b2:e7:75:51:a5:45:44:35:
         de:d1:da:aa:f5:75:92:2a:d1:65:86:9a:80:cf:37:a8:fb:41:
         94:f4:07:84:38:72:73:2b:82:ab:34:f2:a3:02:22:1a:0a:f9:
         41:24:da:7d:16:9e:4a:dc:2f:1a:7e:c1:9e:c9:65:37:f4:e4:
         f1:74:75:81:47:0b:25:f3:7a:27:92:ea:ba:54:8d:02:ea:26:
         39:63:ab:13:23:37:43:d3:a1:15:78:83:aa:49:a2:09:e9:cb:
         e5:1c:a3:5a:ac:c5:da:b0:39:82:19:6d:15:75:28:ba:f7:ba:
         c6:f2:2e:c9:71:4b:3f:64:17:58:41:0b:32:df:8a:5b:f7:39:
         83:3a:03:cd:73:f1:4c:b6:7f:41:b6:e9:ff:64:92:81:ce:a8:
         13:85:0a:e3:d8:d4:32:fc:ec:b4:c3:d9:96:3f:a2:8b:87:85:
         e8:27:34:fc:88:aa:47:e3
-----BEGIN CERTIFICATE-----
MIIElzCCAn+gAwIBAgICEAEwDQYJKoZIhvcNAQELBQAwRTELMAkGA1UEBhMCQVUx
EzARBgNVBAgMClNvbWUtU3RhdGUxITAfBgNVBAoMGEludGVybmV0IFdpZGdpdHMg
UHR5IEx0ZDAeFw0yMjAyMjcxMzM3MDJaFw0yMzAyMjcxMzM3MDJaMFsxCzAJBgNV
BAYTAkFVMRMwEQYDVQQIDApTb21lLVN0YXRlMSEwHwYDVQQKDBhJbnRlcm5ldCBX
aWRnaXRzIFB0eSBMdGQxFDASBgNVBAMMC2V4YW1wbGUuY29tMIIBIjANBgkqhkiG
9w0BAQEFAAOCAQ8AMIIBCgKCAQEA0SNc3bnZpD8N+byWiBOB51Sa9JSn7ylMMnBc
RIzaGJkfZmIxjhHvmRM58ZN3tBnSEIuxlaOZMuRBQsmT4zFGo6A8C3SWMtGWtIjq
Njl9MJiKYlwKD+EAppLOiRbdc53dYoH7QBWk+MOHRnaf0svIcV2toDnuMsKE/pXW
tTThEh6VpaBGsz7PH0iiLXK+guiSgwLrv0E/tPt1hq8ZVkchEMplKlGhlpYXYJ6Q
1D/54s/eI0XNSbYw6pXpIHKiNamvqpi/5woNFy0bSEl+EQ+6imBGxJd9WxXheKjj
hcADl+dk74oAH+akaGG00MBePT5bykhX0XJeD/9EEHMvPrAJpwIDAQABo3sweTAJ
BgNVHRMEAjAAMCwGCWCGSAGG+EIBDQQfFh1PcGVuU1NMIEdlbmVyYXRlZCBDZXJ0
aWZpY2F0ZTAdBgNVHQ4EFgQUR4o1qrqNOkuSVye1lXsptl/pzUIwHwYDVR0jBBgw
FoAUXwUn9TC8JrMKppYPWaMlAbeFuMUwDQYJKoZIhvcNAQELBQADggIBAEZtYI9q
XM+jFKpJtBcvbEQG+aVRMKxOKV1Kri9dMG1K4XPIQUKADCtgnrqNdA2kZIGzGd96
nk28ChiWQTFn1HZVh+JvnOpZ/0fVIliTdBYsHrqAjqfvGmSAYAphdv7j9U23m5aC
NsAgEiWFuLq7ZSJl3rPsFhoq7dkS513FMyKKw3Hx+pEJg0tjMMXpNa/vDeH5LBvo
Bfc7pUX1VOGvZZaI6z20U6Oiue+cXI3Gi1vlV3wEch98HAGXEjJ2Db/MSgyDAa+8
PJ/Kmp1JGCff81QuAw01n8Nh1qHaqYv3zsJsjA5lNvj1NDGegg5gZz+q5ZrchiBO
SInmpBBFyXXjH2vbm4kmA+FvAAFZ4j5avr/THeahiYLYt16PpEItwmcnTHB2oOKH
imgGMyGau+0RRb9E2nPixy3EIJ1lqaA0TWonWSBcUD7uvZ+Aw7ZfT+ey53VRpUVE
Nd7R2qr1dZIq0WWGmoDPN6j7QZT0B4Q4cnMrgqs08qMCIhoK+UEk2n0WnkrcLxp+
wZ7JZTf05PF0dYFHCyXzeieS6rpUjQLqJjljqxMjN0PToRV4g6pJognpy+Uco1qs
xdqwOYIZbRV1KLr3usbyLslxSz9kF1hBCzLfilv3OYM6A81z8Uy2f0G26f9kkoHO
qBOFCuPY1DL87LTD2ZY/oouHhegnNPyIqkfj
-----END CERTIFICATE-----
