-----BEGIN ENCRYPTED PRIVATE KEY-----
MIIFHDBOBgkqhkiG9w0BBQ0wQTApBgkqhkiG9w0BBQwwHAQIqri2vXl9nx0CAggA
MAwGCCqGSIb3DQIJBQAwFAYIKoZIhvcNAwcECMg6sgz5cFClBIIEyI1jGP66J0me
QxvWd8UqryRseZNhouGHr2WQT4hQcK3P9+44DKxJNJ6MYYPZDanv6wyu+aimumwN
G9j6euRAOCyrSbhCdPCUth2Ikb/r25XaiKIvVwTz5DAogkTTI1NmRzHUW1gEgjDF
lQa18ED96St7HR8PwsUL839AlIsYCgMGy+96nYwWboQWYfGN4UxCggelvAh4WmR9
TZgoCEVNoeM7BtaE0n+fEM6/nxgHg0K88kqjtAy79PCrCg3eoSmzFL6ewP8OsumL
vv+21c2CfJYTz1RbYXuKmbDpYKgBjatUu0guOiy15xJ2QvahDlTDAUxMhQLHX0ht
iAqDcvn6ebwlwWDwRNxpWrc7PuCwvvJ94+OXzC91xaR4Sg5vV8g/BGbgarZYX72+
AZLLzXlzY/IV0Wqi9NPn7vMTM//oYCgp7GAHvb/nB2o87oUOSdk2/pvkTZTM2V0f
NjIGXXLpUtMHhTQV0r6zwKW2FFlxi0s7xpYGdlV12FU7ys+BDNQ9pZUPHS4CX/LN
lslG2QRzPiuFIgaiambSji2/saptc1diyfLlakt5oj/1LlGrXm/vqm8M07ruVKsg
19p4FWtMJUfFb4daEMNWVJ9sDknB0YR/4JQU1JHwyEF252VMOh8KGTRubt1MJTOc
d7o29yBKYm5fDn32RNlEvWe76hWaPD7A/dAuCrU4AEVCbj+G/r2npbf8Z85NOgEv
TjySiZkIOOEoN/G7S99GnxDu6ek63F7QvVrY9tB43rFoVQP1nweUJL8fJUXglSI2
pEZ//BCkfMUr/DjWZ2WyF23q14FGichUG0WRZ0/JMP3JiVAsH1oma4eXdTsL3Nkl
RHHFElcV4lxWr22Xdj9rXkg8ze5tRYusEIHnjevOhXdRhiWYiK0D3T4XoCitjJH4
qZqLA05Ol+GXgOMdEIqhSdS4qOwQZlMLsQRw+TTOUgsgS3q2KhCNAhNM45O72rQR
ZGm50I5uFZm+t3BFoEPS1Sz+vQeQMa96QZUXXZNgRSSe//HblKQXUzawQ6MA+k33
UI48l79yR7adKJeVAuCfoxn4p7yjcR4trQ+lyOSp9YeeJ48Ga7z7Yy/DgM8/qwLJ
PXBo6AXsaVi70g+7cdvPSc9gOF1AsFHWAJYn/WX6hdUdavgb7LYj9FLivO4lOgNS
K3Z2uoV1HkweMm2bGDmtZHEvqrvWRn/oh2VwxeMHJGxD/amXQO3vK1C7smnFnR9k
DlPNCIMWd6uakmwEm6k2oUc6LbeW0D54kUVI+LuNpcO3kHuG3gLZ7g3UVnr4xeEA
jkn8NrLjmA19hA2H07WFG1dEjO/JX8lSLwYWL3M9vr9lKg4lLM3pO/v6i33Bfqzf
eeyGB1D+l1nHxQD3yGR3tvnajEwnw4ti4Xx+MM3BHi0DWyk70M8/PcuvVs/p5YMn
XRyOXi/pPx9kJLnYdH5imvlxKmYQ01yjNF7uTV53ThXuyomecbWu+H0aU7RKm95T
3eG1rUfA9WDrzR+V+1wVMxgJ3DihNouwoKCvRbbTfgEVxKsmAw2PsArLmlX0yPnz
aAFw8rD/AM4IBalZpjVZrNeuO3tiCVQkOdc/iqhLEAqD4DsD5ypCZmjT4koY9r8c
RArGvrIK6ttFmPGkymckzw==
-----END ENCRYPTED PRIVATE KEY-----
Certificate:
    Data:
        Version: 3 (0x2)
        Serial Number: 4096 (0x1000)
        Signature Algorithm: sha256WithRSAEncryption
        Issuer: C=TE, ST=Some-State, O=Internet Widgits Pty Ltd
        Validity
            Not Before: Feb 27 07:06:22 2022 GMT
            Not After : Feb 27 07:06:22 2023 GMT
        Subject: C=AU, ST=Some-State, O=Internet Widgits Pty Ltd, CN=SEEDPKILab2020.com
        Subject Public Key Info:
            Public Key Algorithm: rsaEncryption
                RSA Public-Key: (2048 bit)
                Modulus:
                    00:d1:23:5c:dd:b9:d9:a4:3f:0d:f9:bc:96:88:13:
                    81:e7:54:9a:f4:94:a7:ef:29:4c:32:70:5c:44:8c:
                    da:18:99:1f:66:62:31:8e:11:ef:99:13:39:f1:93:
                    77:b4:19:d2:10:8b:b1:95:a3:99:32:e4:41:42:c9:
                    93:e3:31:46:a3:a0:3c:0b:74:96:32:d1:96:b4:88:
                    ea:36:39:7d:30:98:8a:62:5c:0a:0f:e1:00:a6:92:
                    ce:89:16:dd:73:9d:dd:62:81:fb:40:15:a4:f8:c3:
                    87:46:76:9f:d2:cb:c8:71:5d:ad:a0:39:ee:32:c2:
                    84:fe:95:d6:b5:34:e1:12:1e:95:a5:a0:46:b3:3e:
                    cf:1f:48:a2:2d:72:be:82:e8:92:83:02:eb:bf:41:
                    3f:b4:fb:75:86:af:19:56:47:21:10:ca:65:2a:51:
                    a1:96:96:17:60:9e:90:d4:3f:f9:e2:cf:de:23:45:
                    cd:49:b6:30:ea:95:e9:20:72:a2:35:a9:af:aa:98:
                    bf:e7:0a:0d:17:2d:1b:48:49:7e:11:0f:ba:8a:60:
                    46:c4:97:7d:5b:15:e1:78:a8:e3:85:c0:03:97:e7:
                    64:ef:8a:00:1f:e6:a4:68:61:b4:d0:c0:5e:3d:3e:
                    5b:ca:48:57:d1:72:5e:0f:ff:44:10:73:2f:3e:b0:
                    09:a7
                Exponent: 65537 (0x10001)
        X509v3 extensions:
            X509v3 Basic Constraints: 
                CA:FALSE
            Netscape Comment: 
                OpenSSL Generated Certificate
            X509v3 Subject Key Identifier: 
                47:8A:35:AA:BA:8D:3A:4B:92:57:27:B5:95:7B:29:B6:5F:E9:CD:42
            X509v3 Authority Key Identifier: 
                keyid:5F:05:27:F5:30:BC:26:B3:0A:A6:96:0F:59:A3:25:01:B7:85:B8:C5

    Signature Algorithm: sha256WithRSAEncryption
         66:47:50:f2:ca:27:15:b8:00:ed:4f:44:68:b4:b8:ab:85:31:
         b3:a8:92:c8:f9:3b:e1:c9:51:a4:a7:c5:86:4d:50:16:ca:5b:
         01:b8:bd:5a:2a:3d:e7:24:9f:96:8b:7c:eb:15:83:97:90:fd:
         be:2b:3c:88:df:92:79:84:03:e5:88:85:50:bd:cb:42:7e:e3:
         e2:c2:28:61:48:9e:94:30:dd:09:59:10:71:d3:9d:ca:33:fe:
         06:83:a1:94:7d:e3:94:b9:7e:dc:e1:94:d9:2c:d4:16:b9:6f:
         7d:85:09:eb:58:d7:9d:9b:39:56:6f:11:8b:e4:27:71:55:4a:
         1d:7b:6d:41:42:08:9d:07:7b:d0:f6:c0:37:13:36:ac:3f:fb:
         de:f5:63:14:8e:79:62:9f:1b:20:89:98:8c:45:42:cc:9b:cd:
         ca:6f:e7:e3:c8:1c:12:a9:a6:da:0b:c9:15:f1:da:32:93:eb:
         d7:71:3e:27:c1:e8:e1:63:d7:6f:33:b3:2e:95:2b:78:49:c8:
         34:40:52:74:f3:13:ee:8d:2c:37:39:56:ce:3a:20:04:16:c9:
         9f:5c:a8:60:13:cf:6f:a7:89:4b:44:72:67:b9:ce:d2:6e:b6:
         6b:d4:fe:f7:29:9c:6e:17:04:e8:c4:a2:7f:79:a2:16:e2:67:
         89:66:6a:ac:07:2d:f4:61:d5:68:61:c5:0e:b9:53:c1:88:6b:
         62:a9:fa:85:17:67:45:35:c7:86:5d:e9:07:30:74:69:9c:13:
         cc:ee:88:1a:ae:6f:17:dc:39:f5:ec:b5:9e:6d:6d:d8:19:70:
         4d:08:d7:12:9d:73:a5:c0:53:81:3c:73:be:0a:a0:09:a9:f2:
         75:02:f7:df:2f:d2:93:c6:73:76:ee:0b:c3:68:7d:a1:45:e5:
         70:6f:87:b2:ce:09:7b:21:e8:52:0a:5f:92:96:1e:be:b5:95:
         70:24:7d:95:46:11:6a:1e:c0:c5:6c:d7:3d:2c:21:60:87:61:
         c5:5c:8d:7e:07:bd:8f:e5:83:b1:f5:02:f5:0a:4c:7c:ef:4b:
         3a:2d:5d:71:e1:24:67:5e:cd:b6:20:0f:09:6d:1c:d6:95:e1:
         96:b3:3c:8a:92:80:11:53:d9:31:95:5b:56:62:3a:44:4c:6a:
         31:7b:be:1f:24:e8:a3:b8:fb:5c:25:0a:19:0d:3b:a9:39:b0:
         a0:c8:29:0b:0a:b0:41:8c:28:74:b4:ad:85:02:14:d7:97:1e:
         e0:09:58:a1:61:a6:28:1f:8b:d4:a6:7f:04:b8:ca:ea:99:a2:
         68:49:47:be:77:3a:23:b4:89:2d:a9:5e:c2:5b:dd:e3:15:c6:
         19:d3:a3:8a:ed:17:7a:6f
-----BEGIN CERTIFICATE-----
MIIEnjCCAoagAwIBAgICEAAwDQYJKoZIhvcNAQELBQAwRTELMAkGA1UEBhMCQVUx
EzARBgNVBAgMClNvbWUtU3RhdGUxITAfBgNVBAoMGEludGVybmV0IFdpZGdpdHMg
UHR5IEx0ZDAeFw0yMjAyMjcwNzA2MjJaFw0yMzAyMjcwNzA2MjJaMGIxCzAJBgNV
BAYTAkFVMRMwEQYDVQQIDApTb21lLVN0YXRlMSEwHwYDVQQKDBhJbnRlcm5ldCBX
aWRnaXRzIFB0eSBMdGQxGzAZBgNVBAMMElNFRURQS0lMYWIyMDIwLmNvbTCCASIw
DQYJKoZIhvcNAQEBBQADggEPADCCAQoCggEBANEjXN252aQ/Dfm8logTgedUmvSU
p+8pTDJwXESM2hiZH2ZiMY4R75kTOfGTd7QZ0hCLsZWjmTLkQULJk+MxRqOgPAt0
ljLRlrSI6jY5fTCYimJcCg/hAKaSzokW3XOd3WKB+0AVpPjDh0Z2n9LLyHFdraA5
7jLChP6V1rU04RIelaWgRrM+zx9Ioi1yvoLokoMC679BP7T7dYavGVZHIRDKZSpR
oZaWF2CekNQ/+eLP3iNFzUm2MOqV6SByojWpr6qYv+cKDRctG0hJfhEPuopgRsSX
fVsV4Xio44XAA5fnZO+KAB/mpGhhtNDAXj0+W8pIV9FyXg//RBBzLz6wCacCAwEA
AaN7MHkwCQYDVR0TBAIwADAsBglghkgBhvhCAQ0EHxYdT3BlblNTTCBHZW5lcmF0
ZWQgQ2VydGlmaWNhdGUwHQYDVR0OBBYEFEeKNaq6jTpLklcntZV7KbZf6c1CMB8G
A1UdIwQYMBaAFF8FJ/UwvCazCqaWD1mjJQG3hbjFMA0GCSqGSIb3DQEBCwUAA4IC
AQBmR1DyyicVuADtT0RotLirhTGzqJLI+TvhyVGkp8WGTVAWylsBuL1aKj3nJJ+W
i3zrFYOXkP2+KzyI35J5hAPliIVQvctCfuPiwihhSJ6UMN0JWRBx053KM/4Gg6GU
feOUuX7c4ZTZLNQWuW99hQnrWNedmzlWbxGL5CdxVUode21BQgidB3vQ9sA3Ezas
P/ve9WMUjnlinxsgiZiMRULMm83Kb+fjyBwSqabaC8kV8doyk+vXcT4nwejhY9dv
M7MulSt4Scg0QFJ08xPujSw3OVbOOiAEFsmfXKhgE89vp4lLRHJnuc7SbrZr1P73
KZxuFwToxKJ/eaIW4meJZmqsBy30YdVoYcUOuVPBiGtiqfqFF2dFNceGXekHMHRp
nBPM7ogarm8X3Dn17LWebW3YGXBNCNcSnXOlwFOBPHO+CqAJqfJ1AvffL9KTxnN2
7gvDaH2hReVwb4eyzgl7IehSCl+Slh6+tZVwJH2VRhFqHsDFbNc9LCFgh2HFXI1+
B72P5YOx9QL1Ckx870s6LV1x4SRnXs22IA8JbRzWleGWszyKkoARU9kxlVtWYjpE
TGoxe74fJOijuPtcJQoZDTupObCgyCkLCrBBjCh0tK2FAhTXlx7gCVihYaYoH4vU
pn8EuMrqmaJoSUe+dzojtIktqV7CW93jFcYZ06OK7Rd6bw==
-----END CERTIFICATE-----

